target datalayout = "e-m:e-p270:32:32-p271:32:32-p272:64:64-i64:64-i128:128-f80:128-n8:16:32:64-S128"
target triple = "x86_64-pc-linux-gnu"

; Function Attrs: mustprogress nounwind uwtable
define internal noundef double @_ZL8safe_expd(double noundef %0) #0 {
  %2 = alloca double, align 8
  %3 = alloca double, align 8
  %4 = alloca double, align 8
  %5 = alloca double, align 8
  %6 = alloca i32, align 4
  store double %0, ptr %3, align 8, !tbaa !16
  call void @llvm.lifetime.start.p0(i64 8, ptr %4) #14
  store double 2.000000e+02, ptr %4, align 8, !tbaa !16
  call void @llvm.lifetime.start.p0(i64 8, ptr %5) #14
  %7 = load double, ptr %4, align 8, !tbaa !16
  %8 = fneg double %7
  store double %8, ptr %5, align 8, !tbaa !16
  %9 = load double, ptr %3, align 8, !tbaa !16
  %10 = load double, ptr %5, align 8, !tbaa !16
  %11 = fcmp ole double %9, %10
  br i1 %11, label %12, label %15

12:                                               ; preds = %1
  %13 = load double, ptr %5, align 8, !tbaa !16
  %14 = call double @exp(double noundef %13) #14, !tbaa !4
  store double %14, ptr %2, align 8
  store i32 1, ptr %6, align 4
  br label %25

15:                                               ; preds = %1
  %16 = load double, ptr %3, align 8, !tbaa !16
  %17 = load double, ptr %4, align 8, !tbaa !16
  %18 = fcmp oge double %16, %17
  br i1 %18, label %19, label %22

19:                                               ; preds = %15
  %20 = load double, ptr %4, align 8, !tbaa !16
  %21 = call double @exp(double noundef %20) #14, !tbaa !4
  store double %21, ptr %2, align 8
  store i32 1, ptr %6, align 4
  br label %25

22:                                               ; preds = %15
  %23 = load double, ptr %3, align 8, !tbaa !16
  %24 = call double @exp(double noundef %23) #14, !tbaa !4
  store double %24, ptr %2, align 8
  store i32 1, ptr %6, align 4
  br label %25

25:                                               ; preds = %22, %19, %12
  call void @llvm.lifetime.end.p0(i64 8, ptr %5) #14
  call void @llvm.lifetime.end.p0(i64 8, ptr %4) #14
  %26 = load double, ptr %2, align 8
  ret double %26
}

; Function Attrs: mustprogress nounwind uwtable
define internal noundef double @_ZL14lmc_exp_9_parmdPKd(double noundef %0, ptr noundef %1) #0 {
  %3 = alloca double, align 8
  %4 = alloca ptr, align 8
  %5 = alloca double, align 8
  %6 = alloca double, align 8
  %7 = alloca double, align 8
  %8 = alloca double, align 8
  %9 = alloca double, align 8
  %10 = alloca double, align 8
  %11 = alloca double, align 8
  %12 = alloca double, align 8
  store double %0, ptr %3, align 8, !tbaa !16
  store ptr %1, ptr %4, align 8, !tbaa !18
  call void @llvm.lifetime.start.p0(i64 8, ptr %5) #14
  call void @llvm.lifetime.start.p0(i64 8, ptr %6) #14
  call void @llvm.lifetime.start.p0(i64 8, ptr %7) #14
  call void @llvm.lifetime.start.p0(i64 8, ptr %8) #14
  call void @llvm.lifetime.start.p0(i64 8, ptr %9) #14
  call void @llvm.lifetime.start.p0(i64 8, ptr %10) #14
  call void @llvm.lifetime.start.p0(i64 8, ptr %11) #14
  call void @llvm.lifetime.start.p0(i64 8, ptr %12) #14
  %13 = load ptr, ptr %4, align 8, !tbaa !18
  %14 = getelementptr inbounds double, ptr %13, i64 1
  %15 = load double, ptr %14, align 8, !tbaa !16
  %16 = call double @llvm.fabs.f64(double %15)
  store double %16, ptr %9, align 8, !tbaa !16
  %17 = load double, ptr %9, align 8, !tbaa !16
  %18 = load ptr, ptr %4, align 8, !tbaa !18
  %19 = getelementptr inbounds double, ptr %18, i64 3
  %20 = load double, ptr %19, align 8, !tbaa !16
  %21 = call double @llvm.fabs.f64(double %20)
  %22 = fadd double %17, %21
  store double %22, ptr %10, align 8, !tbaa !16
  %23 = load double, ptr %10, align 8, !tbaa !16
  %24 = load ptr, ptr %4, align 8, !tbaa !18
  %25 = getelementptr inbounds double, ptr %24, i64 5
  %26 = load double, ptr %25, align 8, !tbaa !16
  %27 = call double @llvm.fabs.f64(double %26)
  %28 = fadd double %23, %27
  store double %28, ptr %11, align 8, !tbaa !16
  %29 = load double, ptr %11, align 8, !tbaa !16
  %30 = load ptr, ptr %4, align 8, !tbaa !18
  %31 = getelementptr inbounds double, ptr %30, i64 7
  %32 = load double, ptr %31, align 8, !tbaa !16
  %33 = call double @llvm.fabs.f64(double %32)
  %34 = fadd double %29, %33
  store double %34, ptr %12, align 8, !tbaa !16
  %35 = load double, ptr %3, align 8, !tbaa !16
  %36 = fneg double %35
  %37 = load double, ptr %9, align 8, !tbaa !16
  %38 = fdiv double %36, %37
  %39 = call noundef double @_ZL8safe_expd(double noundef %38)
  store double %39, ptr %5, align 8, !tbaa !16
  %40 = load double, ptr %3, align 8, !tbaa !16
  %41 = fneg double %40
  %42 = load double, ptr %10, align 8, !tbaa !16
  %43 = fdiv double %41, %42
  %44 = call noundef double @_ZL8safe_expd(double noundef %43)
  store double %44, ptr %6, align 8, !tbaa !16
  %45 = load double, ptr %3, align 8, !tbaa !16
  %46 = fneg double %45
  %47 = load double, ptr %11, align 8, !tbaa !16
  %48 = fdiv double %46, %47
  %49 = call noundef double @_ZL8safe_expd(double noundef %48)
  store double %49, ptr %7, align 8, !tbaa !16
  %50 = load double, ptr %3, align 8, !tbaa !16
  %51 = fneg double %50
  %52 = load double, ptr %12, align 8, !tbaa !16
  %53 = fdiv double %51, %52
  %54 = call noundef double @_ZL8safe_expd(double noundef %53)
  store double %54, ptr %8, align 8, !tbaa !16
  %55 = load ptr, ptr %4, align 8, !tbaa !18
  %56 = getelementptr inbounds double, ptr %55, i64 0
  %57 = load double, ptr %56, align 8, !tbaa !16
  %58 = load double, ptr %5, align 8, !tbaa !16
  %59 = load ptr, ptr %4, align 8, !tbaa !18
  %60 = getelementptr inbounds double, ptr %59, i64 2
  %61 = load double, ptr %60, align 8, !tbaa !16
  %62 = load double, ptr %6, align 8, !tbaa !16
  %63 = fmul double %61, %62
  %64 = call double @llvm.fmuladd.f64(double %57, double %58, double %63)
  %65 = load ptr, ptr %4, align 8, !tbaa !18
  %66 = getelementptr inbounds double, ptr %65, i64 4
  %67 = load double, ptr %66, align 8, !tbaa !16
  %68 = load double, ptr %7, align 8, !tbaa !16
  %69 = call double @llvm.fmuladd.f64(double %67, double %68, double %64)
  %70 = load ptr, ptr %4, align 8, !tbaa !18
  %71 = getelementptr inbounds double, ptr %70, i64 6
  %72 = load double, ptr %71, align 8, !tbaa !16
  %73 = load double, ptr %8, align 8, !tbaa !16
  %74 = call double @llvm.fmuladd.f64(double %72, double %73, double %69)
  %75 = load ptr, ptr %4, align 8, !tbaa !18
  %76 = getelementptr inbounds double, ptr %75, i64 8
  %77 = load double, ptr %76, align 8, !tbaa !16
  %78 = fadd double %74, %77
  call void @llvm.lifetime.end.p0(i64 8, ptr %12) #14
  call void @llvm.lifetime.end.p0(i64 8, ptr %11) #14
  call void @llvm.lifetime.end.p0(i64 8, ptr %10) #14
  call void @llvm.lifetime.end.p0(i64 8, ptr %9) #14
  call void @llvm.lifetime.end.p0(i64 8, ptr %8) #14
  call void @llvm.lifetime.end.p0(i64 8, ptr %7) #14
  call void @llvm.lifetime.end.p0(i64 8, ptr %6) #14
  call void @llvm.lifetime.end.p0(i64 8, ptr %5) #14
  ret double %78
}