; Function Attrs: mustprogress nofree nounwind willreturn memory(write, argmem: readwrite) uwtable
define internal noundef double @_ZL14lmc_exp_9_parmdPKd(double noundef %0, ptr noundef readonly captures(none) %1) #4 {
  %3 = getelementptr inbounds nuw i8, ptr %1, i64 8
  %4 = load double, ptr %3, align 8, !tbaa !13
  %5 = tail call double @llvm.fabs.f64(double %4)
  %6 = getelementptr inbounds nuw i8, ptr %1, i64 24
  %7 = load double, ptr %6, align 8, !tbaa !13
  %8 = tail call double @llvm.fabs.f64(double %7)
  %9 = fadd double %5, %8
  %10 = getelementptr inbounds nuw i8, ptr %1, i64 40
  %11 = load double, ptr %10, align 8, !tbaa !13
  %12 = tail call double @llvm.fabs.f64(double %11)
  %13 = fadd double %9, %12
  %14 = getelementptr inbounds nuw i8, ptr %1, i64 56
  %15 = load double, ptr %14, align 8, !tbaa !13
  %16 = tail call double @llvm.fabs.f64(double %15)
  %17 = fadd double %13, %16
  %18 = fneg double %0
  %19 = fdiv double %18, %5
  %20 = fcmp ugt double %19, -2.000000e+02
  br i1 %20, label %21, label %_ZL8safe_expd.exit

21:                                               ; preds = %2
  %22 = fcmp ult double %19, 2.000000e+02
  br i1 %22, label %23, label %_ZL8safe_expd.exit

23:                                               ; preds = %21
  %24 = tail call double @exp(double noundef %19) #18, !tbaa !4
  br label %_ZL8safe_expd.exit

_ZL8safe_expd.exit:                               ; preds = %2, %21, %23
  %.0.i = phi double [ %24, %23 ], [ 0x2DE6061812054CFA, %2 ], [ 0x51F73F60EA79F5B9, %21 ]
  %25 = fdiv double %18, %9
  %26 = fcmp ugt double %25, -2.000000e+02
  br i1 %26, label %27, label %_ZL8safe_expd.exit25

27:                                               ; preds = %_ZL8safe_expd.exit
  %28 = fcmp ult double %25, 2.000000e+02
  br i1 %28, label %29, label %_ZL8safe_expd.exit25

29:                                               ; preds = %27
  %30 = tail call double @exp(double noundef %25) #18, !tbaa !4
  br label %_ZL8safe_expd.exit25

_ZL8safe_expd.exit25:                             ; preds = %_ZL8safe_expd.exit, %27, %29
  %.0.i24 = phi double [ %30, %29 ], [ 0x2DE6061812054CFA, %_ZL8safe_expd.exit ], [ 0x51F73F60EA79F5B9, %27 ]
  %31 = fdiv double %18, %13
  %32 = fcmp ugt double %31, -2.000000e+02
  br i1 %32, label %33, label %_ZL8safe_expd.exit27

33:                                               ; preds = %_ZL8safe_expd.exit25
  %34 = fcmp ult double %31, 2.000000e+02
  br i1 %34, label %35, label %_ZL8safe_expd.exit27

35:                                               ; preds = %33
  %36 = tail call double @exp(double noundef %31) #18, !tbaa !4
  br label %_ZL8safe_expd.exit27

_ZL8safe_expd.exit27:                             ; preds = %_ZL8safe_expd.exit25, %33, %35
  %.0.i26 = phi double [ %36, %35 ], [ 0x2DE6061812054CFA, %_ZL8safe_expd.exit25 ], [ 0x51F73F60EA79F5B9, %33 ]
  %37 = fdiv double %18, %17
  %38 = fcmp ugt double %37, -2.000000e+02
  br i1 %38, label %39, label %_ZL8safe_expd.exit29

39:                                               ; preds = %_ZL8safe_expd.exit27
  %40 = fcmp ult double %37, 2.000000e+02
  br i1 %40, label %41, label %_ZL8safe_expd.exit29

41:                                               ; preds = %39
  %42 = tail call double @exp(double noundef %37) #18, !tbaa !4
  br label %_ZL8safe_expd.exit29

_ZL8safe_expd.exit29:                             ; preds = %_ZL8safe_expd.exit27, %39, %41
  %.0.i28 = phi double [ %42, %41 ], [ 0x2DE6061812054CFA, %_ZL8safe_expd.exit27 ], [ 0x51F73F60EA79F5B9, %39 ]
  %43 = load double, ptr %1, align 8, !tbaa !13
  %44 = getelementptr inbounds nuw i8, ptr %1, i64 16
  %45 = load double, ptr %44, align 8, !tbaa !13
  %46 = fmul double %.0.i24, %45
  %47 = tail call double @llvm.fmuladd.f64(double %43, double %.0.i, double %46)
  %48 = getelementptr inbounds nuw i8, ptr %1, i64 32
  %49 = load double, ptr %48, align 8, !tbaa !13
  %50 = tail call double @llvm.fmuladd.f64(double %49, double %.0.i26, double %47)
  %51 = getelementptr inbounds nuw i8, ptr %1, i64 48
  %52 = load double, ptr %51, align 8, !tbaa !13
  %53 = tail call double @llvm.fmuladd.f64(double %52, double %.0.i28, double %50)
  %54 = getelementptr inbounds nuw i8, ptr %1, i64 64
  %55 = load double, ptr %54, align 8, !tbaa !13
  %56 = fadd double %55, %53
  ret double %56
}